target datalayout = "e-m:e-p270:32:32-p271:32:32-p272:64:64-i64:64-i128:128-f80:128-n8:16:32:64-S128"
target triple = "x86_64-pc-linux-gnu"

%"class.gmx::ArrayRef" = type { %"struct.gmx::ArrayRefIter", %"struct.gmx::ArrayRefIter" }
%"struct.gmx::ArrayRefIter" = type { ptr }
%union.t_iparams = type { %struct.anon.21 }
%struct.anon.21 = type { [3 x float], [3 x float], [3 x float], [3 x float] }
%"class.std::vector.36" = type { %"struct.std::_Vector_base.37" }
%"struct.std::_Vector_base.37" = type { %"struct.std::_Vector_base<float, std::allocator<float>>::_Vector_impl" }
%"struct.std::_Vector_base<float, std::allocator<float>>::_Vector_impl" = type { %"struct.std::_Vector_base<float, std::allocator<float>>::_Vector_impl_data" }
%"struct.std::_Vector_base<float, std::allocator<float>>::_Vector_impl_data" = type { ptr, ptr, ptr }
%struct.anon.30 = type { i32, float, float }
%struct.t_fcdata = type { %"class.std::vector.46", %"class.std::vector.46", %"class.std::vector.46", ptr, %"class.std::unique_ptr.51" }
%"class.std::vector.46" = type { %"struct.std::_Vector_base.47" }
%"struct.std::_Vector_base.47" = type { %"struct.std::_Vector_base<bondedtable_t, std::allocator<bondedtable_t>>::_Vector_impl" }
%"struct.std::_Vector_base<bondedtable_t, std::allocator<bondedtable_t>>::_Vector_impl" = type { %"struct.std::_Vector_base<bondedtable_t, std::allocator<bondedtable_t>>::_Vector_impl_data" }
%"struct.std::_Vector_base<bondedtable_t, std::allocator<bondedtable_t>>::_Vector_impl_data" = type { ptr, ptr, ptr }
%"class.std::unique_ptr.51" = type { %"struct.std::__uniq_ptr_data.52" }
%"struct.std::__uniq_ptr_data.52" = type { %"class.std::__uniq_ptr_impl.53" }
%"class.std::__uniq_ptr_impl.53" = type { %"class.std::tuple.54" }
%"class.std::tuple.54" = type { %"struct.std::_Tuple_impl.55" }
%"struct.std::_Tuple_impl.55" = type { %"struct.std::_Head_base.58" }
%"struct.std::_Head_base.58" = type { ptr }
%struct.bondedtable_t = type { i32, float, %"class.std::vector.36" }

@.str.11 = private unnamed_addr constant [6 x i8] c"angle\00", align 1

; Function Attrs: mustprogress nounwind uwtable
define linkonce_odr noundef float @_ZSt4sqrtf(float noundef %0) #3 comdat {
  %2 = alloca float, align 4
  store float %0, ptr %2, align 4
  %3 = load float, ptr %2, align 4
  %4 = call float @sqrtf(float noundef %3) #4
  ret float %4
}

; Function Attrs: mustprogress nounwind uwtable
define internal noundef float @_ZL5iprodPKfS0_(ptr noundef %0, ptr noundef %1) #3 {
  %3 = alloca ptr, align 8
  %4 = alloca ptr, align 8
  store ptr %0, ptr %3, align 8
  store ptr %1, ptr %4, align 8
  %5 = load ptr, ptr %3, align 8
  %6 = getelementptr inbounds float, ptr %5, i64 0
  %7 = load float, ptr %6, align 4
  %8 = load ptr, ptr %4, align 8
  %9 = getelementptr inbounds float, ptr %8, i64 0
  %10 = load float, ptr %9, align 4
  %11 = load ptr, ptr %3, align 8
  %12 = getelementptr inbounds float, ptr %11, i64 1
  %13 = load float, ptr %12, align 4
  %14 = load ptr, ptr %4, align 8
  %15 = getelementptr inbounds float, ptr %14, i64 1
  %16 = load float, ptr %15, align 4
  %17 = fmul float %13, %16
  %18 = call float @llvm.fmuladd.f32(float %7, float %10, float %17)
  %19 = load ptr, ptr %3, align 8
  %20 = getelementptr inbounds float, ptr %19, i64 2
  %21 = load float, ptr %20, align 4
  %22 = load ptr, ptr %4, align 8
  %23 = getelementptr inbounds float, ptr %22, i64 2
  %24 = load float, ptr %23, align 4
  %25 = call float @llvm.fmuladd.f32(float %21, float %24, float %18)
  ret float %25
}

; Function Attrs: mustprogress nounwind uwtable
define internal noundef float @_ZN3gmxL7invsqrtEf(float noundef %0) #3 {
  %2 = alloca float, align 4
  store float %0, ptr %2, align 4
  %3 = load float, ptr %2, align 4
  %4 = call noundef float @_ZSt4sqrtf(float noundef %3)
  %5 = fdiv float 1.000000e+00, %4
  ret float %5
}

; Function Attrs: mustprogress nounwind uwtable
define linkonce_odr noundef float @_ZN3gmx6squareIfEET_S1_(float noundef %0) #3 comdat {
  %2 = alloca float, align 4
  store float %0, ptr %2, align 4
  %3 = load float, ptr %2, align 4
  %4 = load float, ptr %2, align 4
  %5 = fmul float %3, %4
  ret float %5
}

; Function Attrs: mustprogress nounwind uwtable
define linkonce_odr noundef nonnull align 8 dereferenceable(32) ptr @_ZNSt6vectorI13bondedtable_tSaIS0_EEixEm(ptr noundef nonnull align 8 dereferenceable(24) %0, i64 noundef %1) #3 comdat align 2 {
  %3 = alloca ptr, align 8
  %4 = alloca i64, align 8
  store ptr %0, ptr %3, align 8
  store i64 %1, ptr %4, align 8
  %5 = load ptr, ptr %3, align 8
  %6 = getelementptr inbounds %"struct.std::_Vector_base.47", ptr %5, i32 0, i32 0
  %7 = getelementptr inbounds %"struct.std::_Vector_base<bondedtable_t, std::allocator<bondedtable_t>>::_Vector_impl_data", ptr %6, i32 0, i32 0
  %8 = load ptr, ptr %7, align 8
  %9 = load i64, ptr %4, align 8
  %10 = getelementptr inbounds %struct.bondedtable_t, ptr %8, i64 %9
  ret ptr %10
}

; Function Attrs: mustprogress uwtable
define internal noundef float @_ZN12_GLOBAL__N_110tab_anglesIL18BondedKernelFlavor0EEEfiPKiPK9t_iparamsPA3_KfPA4_fPA3_fPK5t_pbcfPfN3gmx8ArrayRefIS7_EEP8t_fcdataP12t_disresdataP12t_oriresdataPi(i32 noundef %0, ptr noundef %1, ptr noundef %2, ptr noundef %3, ptr noundef %4, ptr noundef %5, ptr noundef %6, float noundef %7, ptr noundef %8, ptr noundef byval(%"class.gmx::ArrayRef") align 8 %9, ptr noundef %10, ptr noundef %11, ptr noundef %12, ptr noundef %13) #2 {
  %15 = alloca i32, align 4
  %16 = alloca ptr, align 8
  %17 = alloca ptr, align 8
  %18 = alloca ptr, align 8
  %19 = alloca ptr, align 8
  %20 = alloca ptr, align 8
  %21 = alloca ptr, align 8
  %22 = alloca float, align 4
  %23 = alloca ptr, align 8
  %24 = alloca ptr, align 8
  %25 = alloca ptr, align 8
  %26 = alloca ptr, align 8
  %27 = alloca ptr, align 8
  %28 = alloca i32, align 4
  %29 = alloca i32, align 4
  %30 = alloca i32, align 4
  %31 = alloca i32, align 4
  %32 = alloca i32, align 4
  %33 = alloca i32, align 4
  %34 = alloca i32, align 4
  %35 = alloca i32, align 4
  %36 = alloca [3 x float], align 4
  %37 = alloca [3 x float], align 4
  %38 = alloca float, align 4
  %39 = alloca float, align 4
  %40 = alloca float, align 4
  %41 = alloca float, align 4
  %42 = alloca float, align 4
  %43 = alloca float, align 4
  %44 = alloca i32, align 4
  %45 = alloca float, align 4
  %46 = alloca float, align 4
  %47 = alloca float, align 4
  %48 = alloca float, align 4
  %49 = alloca float, align 4
  %50 = alloca float, align 4
  %51 = alloca float, align 4
  %52 = alloca [3 x float], align 4
  %53 = alloca [3 x float], align 4
  %54 = alloca [3 x float], align 4
  store i32 %0, ptr %15, align 4
  store ptr %1, ptr %16, align 8
  store ptr %2, ptr %17, align 8
  store ptr %3, ptr %18, align 8
  store ptr %4, ptr %19, align 8
  store ptr %5, ptr %20, align 8
  store ptr %6, ptr %21, align 8
  store float %7, ptr %22, align 4
  store ptr %8, ptr %23, align 8
  store ptr %10, ptr %24, align 8
  store ptr %11, ptr %25, align 8
  store ptr %12, ptr %26, align 8
  store ptr %13, ptr %27, align 8
  store float 0.000000e+00, ptr %43, align 4
  store i32 0, ptr %28, align 4
  br label %55

55:                                               ; preds = %261, %14
  %56 = load i32, ptr %28, align 4
  %57 = load i32, ptr %15, align 4
  %58 = icmp slt i32 %56, %57
  br i1 %58, label %59, label %262

59:                                               ; preds = %55
  %60 = load ptr, ptr %16, align 8
  %61 = load i32, ptr %28, align 4
  %62 = add nsw i32 %61, 1
  store i32 %62, ptr %28, align 4
  %63 = sext i32 %61 to i64
  %64 = getelementptr inbounds i32, ptr %60, i64 %63
  %65 = load i32, ptr %64, align 4
  store i32 %65, ptr %34, align 4
  %66 = load ptr, ptr %16, align 8
  %67 = load i32, ptr %28, align 4
  %68 = add nsw i32 %67, 1
  store i32 %68, ptr %28, align 4
  %69 = sext i32 %67 to i64
  %70 = getelementptr inbounds i32, ptr %66, i64 %69
  %71 = load i32, ptr %70, align 4
  store i32 %71, ptr %29, align 4
  %72 = load ptr, ptr %16, align 8
  %73 = load i32, ptr %28, align 4
  %74 = add nsw i32 %73, 1
  store i32 %74, ptr %28, align 4
  %75 = sext i32 %73 to i64
  %76 = getelementptr inbounds i32, ptr %72, i64 %75
  %77 = load i32, ptr %76, align 4
  store i32 %77, ptr %30, align 4
  %78 = load ptr, ptr %16, align 8
  %79 = load i32, ptr %28, align 4
  %80 = add nsw i32 %79, 1
  store i32 %80, ptr %28, align 4
  %81 = sext i32 %79 to i64
  %82 = getelementptr inbounds i32, ptr %78, i64 %81
  %83 = load i32, ptr %82, align 4
  store i32 %83, ptr %31, align 4
  %84 = load ptr, ptr %18, align 8
  %85 = load i32, ptr %29, align 4
  %86 = sext i32 %85 to i64
  %87 = getelementptr inbounds [3 x float], ptr %84, i64 %86
  %88 = getelementptr inbounds [3 x float], ptr %87, i64 0, i64 0
  %89 = load ptr, ptr %18, align 8
  %90 = load i32, ptr %30, align 4
  %91 = sext i32 %90 to i64
  %92 = getelementptr inbounds [3 x float], ptr %89, i64 %91
  %93 = getelementptr inbounds [3 x float], ptr %92, i64 0, i64 0
  %94 = load ptr, ptr %18, align 8
  %95 = load i32, ptr %31, align 4
  %96 = sext i32 %95 to i64
  %97 = getelementptr inbounds [3 x float], ptr %94, i64 %96
  %98 = getelementptr inbounds [3 x float], ptr %97, i64 0, i64 0
  %99 = load ptr, ptr %21, align 8
  %100 = getelementptr inbounds [3 x float], ptr %36, i64 0, i64 0
  %101 = getelementptr inbounds [3 x float], ptr %37, i64 0, i64 0
  %102 = call noundef float @_Z10bond_anglePKfS0_S0_PK5t_pbcPfS4_S4_PiS5_(ptr noundef %88, ptr noundef %93, ptr noundef %98, ptr noundef %99, ptr noundef %100, ptr noundef %101, ptr noundef %38, ptr noundef %32, ptr noundef %33)
  store float %102, ptr %40, align 4
  %103 = load ptr, ptr %17, align 8
  %104 = load i32, ptr %34, align 4
  %105 = sext i32 %104 to i64
  %106 = getelementptr inbounds %union.t_iparams, ptr %103, i64 %105
  %107 = getelementptr inbounds %struct.anon.30, ptr %106, i32 0, i32 0
  %108 = load i32, ptr %107, align 4
  store i32 %108, ptr %35, align 4
  %109 = load i32, ptr %35, align 4
  %110 = load ptr, ptr %24, align 8
  %111 = getelementptr inbounds %struct.t_fcdata, ptr %110, i32 0, i32 1
  %112 = load i32, ptr %35, align 4
  %113 = sext i32 %112 to i64
  %114 = call noundef nonnull align 8 dereferenceable(32) ptr @_ZNSt6vectorI13bondedtable_tSaIS0_EEixEm(ptr noundef nonnull align 8 dereferenceable(24) %111, i64 noundef %113) #4
  %115 = load ptr, ptr %17, align 8
  %116 = load i32, ptr %34, align 4
  %117 = sext i32 %116 to i64
  %118 = getelementptr inbounds %union.t_iparams, ptr %115, i64 %117
  %119 = getelementptr inbounds %struct.anon.30, ptr %118, i32 0, i32 1
  %120 = load float, ptr %119, align 4
  %121 = load ptr, ptr %17, align 8
  %122 = load i32, ptr %34, align 4
  %123 = sext i32 %122 to i64
  %124 = getelementptr inbounds %union.t_iparams, ptr %121, i64 %123
  %125 = getelementptr inbounds %struct.anon.30, ptr %124, i32 0, i32 2
  %126 = load float, ptr %125, align 4
  %127 = load float, ptr %40, align 4
  %128 = load float, ptr %22, align 4
  %129 = call noundef float @_ZN12_GLOBAL__N_110bonded_tabEPKciPK13bondedtable_tffffPfS5_(ptr noundef @.str.11, i32 noundef %109, ptr noundef %114, float noundef %120, float noundef %126, float noundef %127, float noundef %128, ptr noundef %42, ptr noundef %41)
  %130 = load ptr, ptr %23, align 8
  %131 = load float, ptr %130, align 4
  %132 = fadd float %131, %129
  store float %132, ptr %130, align 4
  %133 = load float, ptr %42, align 4
  %134 = load float, ptr %43, align 4
  %135 = fadd float %134, %133
  store float %135, ptr %43, align 4
  %136 = load float, ptr %38, align 4
  %137 = call noundef float @_ZN3gmx6squareIfEET_S1_(float noundef %136)
  store float %137, ptr %39, align 4
  %138 = load float, ptr %39, align 4
  %139 = fcmp olt float %138, 1.000000e+00
  br i1 %139, label %140, label %261

140:                                              ; preds = %59
  %141 = load float, ptr %41, align 4
  %142 = load float, ptr %39, align 4
  %143 = fsub float 1.000000e+00, %142
  %144 = call noundef float @_ZN3gmxL7invsqrtEf(float noundef %143)
  %145 = fmul float %141, %144
  store float %145, ptr %45, align 4
  %146 = load float, ptr %45, align 4
  %147 = load float, ptr %38, align 4
  %148 = fmul float %146, %147
  store float %148, ptr %46, align 4
  %149 = getelementptr inbounds [3 x float], ptr %37, i64 0, i64 0
  %150 = getelementptr inbounds [3 x float], ptr %37, i64 0, i64 0
  %151 = call noundef float @_ZL5iprodPKfS0_(ptr noundef %149, ptr noundef %150)
  store float %151, ptr %50, align 4
  %152 = getelementptr inbounds [3 x float], ptr %36, i64 0, i64 0
  %153 = getelementptr inbounds [3 x float], ptr %36, i64 0, i64 0
  %154 = call noundef float @_ZL5iprodPKfS0_(ptr noundef %152, ptr noundef %153)
  store float %154, ptr %51, align 4
  %155 = load float, ptr %45, align 4
  %156 = load float, ptr %50, align 4
  %157 = load float, ptr %51, align 4
  %158 = fmul float %156, %157
  %159 = call noundef float @_ZN3gmxL7invsqrtEf(float noundef %158)
  %160 = fmul float %155, %159
  store float %160, ptr %47, align 4
  %161 = load float, ptr %46, align 4
  %162 = load float, ptr %51, align 4
  %163 = fdiv float %161, %162
  store float %163, ptr %48, align 4
  %164 = load float, ptr %46, align 4
  %165 = load float, ptr %50, align 4
  %166 = fdiv float %164, %165
  store float %166, ptr %49, align 4
  store i32 0, ptr %44, align 4
  br label %167

167:                                              ; preds = %257, %140
  %168 = load i32, ptr %44, align 4
  %169 = icmp slt i32 %168, 3
  br i1 %169, label %170, label %260

170:                                              ; preds = %167
  %171 = load float, ptr %47, align 4
  %172 = load i32, ptr %44, align 4
  %173 = sext i32 %172 to i64
  %174 = getelementptr inbounds [3 x float], ptr %37, i64 0, i64 %173
  %175 = load float, ptr %174, align 4
  %176 = load float, ptr %48, align 4
  %177 = load i32, ptr %44, align 4
  %178 = sext i32 %177 to i64
  %179 = getelementptr inbounds [3 x float], ptr %36, i64 0, i64 %178
  %180 = load float, ptr %179, align 4
  %181 = fmul float %176, %180
  %182 = fneg float %181
  %183 = call float @llvm.fmuladd.f32(float %171, float %175, float %182)
  %184 = fneg float %183
  %185 = load i32, ptr %44, align 4
  %186 = sext i32 %185 to i64
  %187 = getelementptr inbounds [3 x float], ptr %52, i64 0, i64 %186
  store float %184, ptr %187, align 4
  %188 = load float, ptr %47, align 4
  %189 = load i32, ptr %44, align 4
  %190 = sext i32 %189 to i64
  %191 = getelementptr inbounds [3 x float], ptr %36, i64 0, i64 %190
  %192 = load float, ptr %191, align 4
  %193 = load float, ptr %49, align 4
  %194 = load i32, ptr %44, align 4
  %195 = sext i32 %194 to i64
  %196 = getelementptr inbounds [3 x float], ptr %37, i64 0, i64 %195
  %197 = load float, ptr %196, align 4
  %198 = fmul float %193, %197
  %199 = fneg float %198
  %200 = call float @llvm.fmuladd.f32(float %188, float %192, float %199)
  %201 = fneg float %200
  %202 = load i32, ptr %44, align 4
  %203 = sext i32 %202 to i64
  %204 = getelementptr inbounds [3 x float], ptr %54, i64 0, i64 %203
  store float %201, ptr %204, align 4
  %205 = load i32, ptr %44, align 4
  %206 = sext i32 %205 to i64
  %207 = getelementptr inbounds [3 x float], ptr %52, i64 0, i64 %206
  %208 = load float, ptr %207, align 4
  %209 = fneg float %208
  %210 = load i32, ptr %44, align 4
  %211 = sext i32 %210 to i64
  %212 = getelementptr inbounds [3 x float], ptr %54, i64 0, i64 %211
  %213 = load float, ptr %212, align 4
  %214 = fsub float %209, %213
  %215 = load i32, ptr %44, align 4
  %216 = sext i32 %215 to i64
  %217 = getelementptr inbounds [3 x float], ptr %53, i64 0, i64 %216
  store float %214, ptr %217, align 4
  %218 = load i32, ptr %44, align 4
  %219 = sext i32 %218 to i64
  %220 = getelementptr inbounds [3 x float], ptr %52, i64 0, i64 %219
  %221 = load float, ptr %220, align 4
  %222 = load ptr, ptr %19, align 8
  %223 = load i32, ptr %29, align 4
  %224 = sext i32 %223 to i64
  %225 = getelementptr inbounds [4 x float], ptr %222, i64 %224
  %226 = load i32, ptr %44, align 4
  %227 = sext i32 %226 to i64
  %228 = getelementptr inbounds [4 x float], ptr %225, i64 0, i64 %227
  %229 = load float, ptr %228, align 4
  %230 = fadd float %229, %221
  store float %230, ptr %228, align 4
  %231 = load i32, ptr %44, align 4
  %232 = sext i32 %231 to i64
  %233 = getelementptr inbounds [3 x float], ptr %53, i64 0, i64 %232
  %234 = load float, ptr %233, align 4
  %235 = load ptr, ptr %19, align 8
  %236 = load i32, ptr %30, align 4
  %237 = sext i32 %236 to i64
  %238 = getelementptr inbounds [4 x float], ptr %235, i64 %237
  %239 = load i32, ptr %44, align 4
  %240 = sext i32 %239 to i64
  %241 = getelementptr inbounds [4 x float], ptr %238, i64 0, i64 %240
  %242 = load float, ptr %241, align 4
  %243 = fadd float %242, %234
  store float %243, ptr %241, align 4
  %244 = load i32, ptr %44, align 4
  %245 = sext i32 %244 to i64
  %246 = getelementptr inbounds [3 x float], ptr %54, i64 0, i64 %245
  %247 = load float, ptr %246, align 4
  %248 = load ptr, ptr %19, align 8
  %249 = load i32, ptr %31, align 4
  %250 = sext i32 %249 to i64
  %251 = getelementptr inbounds [4 x float], ptr %248, i64 %250
  %252 = load i32, ptr %44, align 4
  %253 = sext i32 %252 to i64
  %254 = getelementptr inbounds [4 x float], ptr %251, i64 0, i64 %253
  %255 = load float, ptr %254, align 4
  %256 = fadd float %255, %247
  store float %256, ptr %254, align 4
  br label %257

257:                                              ; preds = %170
  %258 = load i32, ptr %44, align 4
  %259 = add nsw i32 %258, 1
  store i32 %259, ptr %44, align 4
  br label %167, !llvm.loop !40

260:                                              ; preds = %167
  br label %261

261:                                              ; preds = %260, %59
  br label %55, !llvm.loop !41

262:                                              ; preds = %55
  %263 = load float, ptr %43, align 4
  ret float %263
}